target datalayout = "e-m:e-p270:32:32-p271:32:32-p272:64:64-i64:64-i128:128-f80:128-n8:16:32:64-S128"
target triple = "x86_64-pc-linux-gnu"

%struct.mbedtls_ssl_context = type { ptr, i32, i32, i32, i32, i32, ptr, ptr, ptr, ptr, ptr, ptr, ptr, ptr, ptr, ptr, ptr, ptr, ptr, ptr, ptr, ptr, ptr, ptr, ptr, ptr, ptr, ptr, ptr, ptr, ptr, ptr, ptr, i32, i64, i64, i16, i64, i64, i64, i64, i32, i32, i8, i8, i32, i8, ptr, ptr, ptr, ptr, ptr, ptr, ptr, i32, i64, i64, [8 x i8], i16, ptr, ptr, ptr, i64, i32, i64, [12 x i8], [12 x i8], [32 x i8], i8, i8, ptr, ptr, %union.mbedtls_ssl_user_data_t }
%union.mbedtls_ssl_user_data_t = type { i64 }
%struct.mbedtls_mpi = type { ptr, i16, i16 }
%struct.mbedtls_ssl_config = type { i32, i32, i8, i8, i8, i8, i8, i8, i8, i8, i8, i8, i16, i8, i8, i8, ptr, i32, ptr, ptr, ptr, ptr, ptr, ptr, ptr, ptr, ptr, ptr, ptr, ptr, ptr, ptr, ptr, ptr, ptr, ptr, ptr, i64, ptr, ptr, ptr, ptr, ptr, ptr, ptr, ptr, %struct.mbedtls_mpi, %struct.mbedtls_mpi, ptr, i64, ptr, i64, ptr, i32, i32, i32, i32, [8 x i8], i32, i32, %union.mbedtls_ssl_user_data_t, ptr, ptr }

@.str = private unnamed_addr constant [130 x i8] c"generated/home/dtcxzyw/WorkSpace/Projects/compilers/llvm-opt-benchmark/bench/lief/bench_build/mbed_src/library/ssl_tls13_server.c\00", align 1
@.str.11 = private unnamed_addr constant [25 x i8] c"missing input data in %s\00", align 1
@.str.14 = private unnamed_addr constant [39 x i8] c"ssl_tls13_parse_supported_versions_ext\00", align 1
@.str.46 = private unnamed_addr constant [28 x i8] c"No supported version found.\00", align 1
@.str.47 = private unnamed_addr constant [27 x i8] c"Negotiated version: [%04x]\00", align 1

; Function Attrs: inlinehint nounwind uwtable
define internal i32 @mbedtls_ssl_conf_is_tls12_enabled(ptr noundef %0) #3 {
  %2 = alloca ptr, align 8
  store ptr %0, ptr %2, align 8, !tbaa !75
  %3 = load ptr, ptr %2, align 8, !tbaa !75
  %4 = getelementptr inbounds nuw %struct.mbedtls_ssl_config, ptr %3, i32 0, i32 1
  %5 = load i32, ptr %4, align 4, !tbaa !76
  %6 = icmp ule i32 %5, 771
  br i1 %6, label %7, label %12

7:                                                ; preds = %1
  %8 = load ptr, ptr %2, align 8, !tbaa !75
  %9 = getelementptr inbounds nuw %struct.mbedtls_ssl_config, ptr %8, i32 0, i32 0
  %10 = load i32, ptr %9, align 8, !tbaa !77
  %11 = icmp uge i32 %10, 771
  br label %12

12:                                               ; preds = %7, %1
  %13 = phi i1 [ false, %1 ], [ %11, %7 ]
  %14 = zext i1 %13 to i32
  ret i32 %14
}

; Function Attrs: inlinehint nounwind uwtable
define internal i32 @mbedtls_ssl_chk_buf_ptr(ptr noundef %0, ptr noundef %1, i64 noundef %2) #3 {
  %4 = alloca ptr, align 8
  %5 = alloca ptr, align 8
  %6 = alloca i64, align 8
  store ptr %0, ptr %4, align 8, !tbaa !41
  store ptr %1, ptr %5, align 8, !tbaa !41
  store i64 %2, ptr %6, align 8, !tbaa !42
  %7 = load ptr, ptr %4, align 8, !tbaa !41
  %8 = load ptr, ptr %5, align 8, !tbaa !41
  %9 = icmp ugt ptr %7, %8
  br i1 %9, label %18, label %10

10:                                               ; preds = %3
  %11 = load i64, ptr %6, align 8, !tbaa !42
  %12 = load ptr, ptr %5, align 8, !tbaa !41
  %13 = load ptr, ptr %4, align 8, !tbaa !41
  %14 = ptrtoint ptr %12 to i64
  %15 = ptrtoint ptr %13 to i64
  %16 = sub i64 %14, %15
  %17 = icmp ugt i64 %11, %16
  br label %18

18:                                               ; preds = %10, %3
  %19 = phi i1 [ true, %3 ], [ %17, %10 ]
  %20 = zext i1 %19 to i32
  ret i32 %20
}

; Function Attrs: nounwind uwtable
define internal i32 @ssl_tls13_parse_supported_versions_ext(ptr noundef %0, ptr noundef %1, ptr noundef %2) #0 {
  %4 = alloca i32, align 4
  %5 = alloca ptr, align 8
  %6 = alloca ptr, align 8
  %7 = alloca ptr, align 8
  %8 = alloca ptr, align 8
  %9 = alloca i64, align 8
  %10 = alloca ptr, align 8
  %11 = alloca i16, align 2
  %12 = alloca i32, align 4
  %13 = alloca i32, align 4
  store ptr %0, ptr %5, align 8, !tbaa !3
  store ptr %1, ptr %6, align 8, !tbaa !41
  store ptr %2, ptr %7, align 8, !tbaa !41
  call void @llvm.lifetime.start.p0(i64 8, ptr %8) #10
  %14 = load ptr, ptr %6, align 8, !tbaa !41
  store ptr %14, ptr %8, align 8, !tbaa !41
  call void @llvm.lifetime.start.p0(i64 8, ptr %9) #10
  call void @llvm.lifetime.start.p0(i64 8, ptr %10) #10
  call void @llvm.lifetime.start.p0(i64 2, ptr %11) #10
  call void @llvm.lifetime.start.p0(i64 4, ptr %12) #10
  store i32 0, ptr %12, align 4, !tbaa !8
  br label %15

15:                                               ; preds = %3
  %16 = load ptr, ptr %8, align 8, !tbaa !41
  %17 = load ptr, ptr %7, align 8, !tbaa !41
  %18 = call i32 @mbedtls_ssl_chk_buf_ptr(ptr noundef %16, ptr noundef %17, i64 noundef 1)
  %19 = icmp ne i32 %18, 0
  br i1 %19, label %20, label %23

20:                                               ; preds = %15
  %21 = load ptr, ptr %5, align 8, !tbaa !3
  call void (ptr, i32, ptr, i32, ptr, ...) @mbedtls_debug_print_msg(ptr noundef %21, i32 noundef 1, ptr noundef @.str, i32 noundef 790, ptr noundef @.str.11, ptr noundef @.str.14)
  %22 = load ptr, ptr %5, align 8, !tbaa !3
  call void @mbedtls_ssl_pend_fatal_alert(ptr noundef %22, i8 noundef zeroext 50, i32 noundef -29440)
  store i32 -29440, ptr %4, align 4
  store i32 1, ptr %13, align 4
  br label %101

23:                                               ; preds = %15
  br label %24

24:                                               ; preds = %23
  br label %25

25:                                               ; preds = %24
  %26 = load ptr, ptr %8, align 8, !tbaa !41
  %27 = getelementptr inbounds i8, ptr %26, i64 0
  %28 = load i8, ptr %27, align 1, !tbaa !56
  %29 = zext i8 %28 to i64
  store i64 %29, ptr %9, align 8, !tbaa !42
  %30 = load ptr, ptr %8, align 8, !tbaa !41
  %31 = getelementptr inbounds i8, ptr %30, i64 1
  store ptr %31, ptr %8, align 8, !tbaa !41
  br label %32

32:                                               ; preds = %25
  %33 = load ptr, ptr %8, align 8, !tbaa !41
  %34 = load ptr, ptr %7, align 8, !tbaa !41
  %35 = load i64, ptr %9, align 8, !tbaa !42
  %36 = call i32 @mbedtls_ssl_chk_buf_ptr(ptr noundef %33, ptr noundef %34, i64 noundef %35)
  %37 = icmp ne i32 %36, 0
  br i1 %37, label %38, label %41

38:                                               ; preds = %32
  %39 = load ptr, ptr %5, align 8, !tbaa !3
  call void (ptr, i32, ptr, i32, ptr, ...) @mbedtls_debug_print_msg(ptr noundef %39, i32 noundef 1, ptr noundef @.str, i32 noundef 794, ptr noundef @.str.11, ptr noundef @.str.14)
  %40 = load ptr, ptr %5, align 8, !tbaa !3
  call void @mbedtls_ssl_pend_fatal_alert(ptr noundef %40, i8 noundef zeroext 50, i32 noundef -29440)
  store i32 -29440, ptr %4, align 4
  store i32 1, ptr %13, align 4
  br label %101

41:                                               ; preds = %32
  br label %42

42:                                               ; preds = %41
  br label %43

43:                                               ; preds = %42
  %44 = load ptr, ptr %8, align 8, !tbaa !41
  %45 = load i64, ptr %9, align 8, !tbaa !42
  %46 = getelementptr inbounds nuw i8, ptr %44, i64 %45
  store ptr %46, ptr %10, align 8, !tbaa !41
  br label %47

47:                                               ; preds = %88, %43
  %48 = load ptr, ptr %8, align 8, !tbaa !41
  %49 = load ptr, ptr %10, align 8, !tbaa !41
  %50 = icmp ult ptr %48, %49
  br i1 %50, label %51, label %89

51:                                               ; preds = %47
  br label %52

52:                                               ; preds = %51
  %53 = load ptr, ptr %8, align 8, !tbaa !41
  %54 = load ptr, ptr %10, align 8, !tbaa !41
  %55 = call i32 @mbedtls_ssl_chk_buf_ptr(ptr noundef %53, ptr noundef %54, i64 noundef 2)
  %56 = icmp ne i32 %55, 0
  br i1 %56, label %57, label %60

57:                                               ; preds = %52
  %58 = load ptr, ptr %5, align 8, !tbaa !3
  call void (ptr, i32, ptr, i32, ptr, ...) @mbedtls_debug_print_msg(ptr noundef %58, i32 noundef 1, ptr noundef @.str, i32 noundef 797, ptr noundef @.str.11, ptr noundef @.str.14)
  %59 = load ptr, ptr %5, align 8, !tbaa !3
  call void @mbedtls_ssl_pend_fatal_alert(ptr noundef %59, i8 noundef zeroext 50, i32 noundef -29440)
  store i32 -29440, ptr %4, align 4
  store i32 1, ptr %13, align 4
  br label %101

60:                                               ; preds = %52
  br label %61

61:                                               ; preds = %60
  br label %62

62:                                               ; preds = %61
  %63 = load ptr, ptr %8, align 8, !tbaa !41
  %64 = load ptr, ptr %5, align 8, !tbaa !3
  %65 = getelementptr inbounds nuw %struct.mbedtls_ssl_context, ptr %64, i32 0, i32 0
  %66 = load ptr, ptr %65, align 8, !tbaa !43
  %67 = getelementptr inbounds nuw %struct.mbedtls_ssl_config, ptr %66, i32 0, i32 3
  %68 = load i8, ptr %67, align 1, !tbaa !50
  %69 = zext i8 %68 to i32
  %70 = call zeroext i16 @mbedtls_ssl_read_version(ptr noundef %63, i32 noundef %69)
  store i16 %70, ptr %11, align 2, !tbaa !82
  %71 = load ptr, ptr %8, align 8, !tbaa !41
  %72 = getelementptr inbounds i8, ptr %71, i64 2
  store ptr %72, ptr %8, align 8, !tbaa !41
  %73 = load i16, ptr %11, align 2, !tbaa !82
  %74 = zext i16 %73 to i32
  %75 = icmp eq i32 772, %74
  br i1 %75, label %76, label %77

76:                                               ; preds = %62
  store i32 1, ptr %12, align 4, !tbaa !8
  br label %89

77:                                               ; preds = %62
  %78 = load i16, ptr %11, align 2, !tbaa !82
  %79 = zext i16 %78 to i32
  %80 = icmp eq i32 771, %79
  br i1 %80, label %81, label %88

81:                                               ; preds = %77
  %82 = load ptr, ptr %5, align 8, !tbaa !3
  %83 = getelementptr inbounds nuw %struct.mbedtls_ssl_context, ptr %82, i32 0, i32 0
  %84 = load ptr, ptr %83, align 8, !tbaa !43
  %85 = call i32 @mbedtls_ssl_conf_is_tls12_enabled(ptr noundef %84)
  %86 = icmp ne i32 %85, 0
  br i1 %86, label %87, label %88

87:                                               ; preds = %81
  store i32 1, ptr %12, align 4, !tbaa !8
  br label %89

88:                                               ; preds = %81, %77
  br label %47, !llvm.loop !83

89:                                               ; preds = %87, %76, %47
  %90 = load i32, ptr %12, align 4, !tbaa !8
  %91 = icmp ne i32 %90, 0
  br i1 %91, label %95, label %92

92:                                               ; preds = %89
  %93 = load ptr, ptr %5, align 8, !tbaa !3
  call void (ptr, i32, ptr, i32, ptr, ...) @mbedtls_debug_print_msg(ptr noundef %93, i32 noundef 1, ptr noundef @.str, i32 noundef 814, ptr noundef @.str.46)
  %94 = load ptr, ptr %5, align 8, !tbaa !3
  call void @mbedtls_ssl_pend_fatal_alert(ptr noundef %94, i8 noundef zeroext 70, i32 noundef -28288)
  store i32 -28288, ptr %4, align 4
  store i32 1, ptr %13, align 4
  br label %101

95:                                               ; preds = %89
  %96 = load ptr, ptr %5, align 8, !tbaa !3
  %97 = load i16, ptr %11, align 2, !tbaa !82
  %98 = zext i16 %97 to i32
  call void (ptr, i32, ptr, i32, ptr, ...) @mbedtls_debug_print_msg(ptr noundef %96, i32 noundef 1, ptr noundef @.str, i32 noundef 822, ptr noundef @.str.47, i32 noundef %98)
  %99 = load i16, ptr %11, align 2, !tbaa !82
  %100 = zext i16 %99 to i32
  store i32 %100, ptr %4, align 4
  store i32 1, ptr %13, align 4
  br label %101

101:                                              ; preds = %95, %92, %57, %38, %20
  call void @llvm.lifetime.end.p0(i64 4, ptr %12) #10
  call void @llvm.lifetime.end.p0(i64 2, ptr %11) #10
  call void @llvm.lifetime.end.p0(i64 8, ptr %10) #10
  call void @llvm.lifetime.end.p0(i64 8, ptr %9) #10
  call void @llvm.lifetime.end.p0(i64 8, ptr %8) #10
  %102 = load i32, ptr %4, align 4
  ret i32 %102
}