; Function Attrs: nounwind uwtable
define internal fastcc range(i32 -29440, 773) i32 @ssl_tls13_parse_supported_versions_ext(ptr noundef %0, ptr noundef %1, ptr noundef %2) unnamed_addr #0 {
  %narrow.i.not = icmp ugt ptr %2, %1
  br i1 %narrow.i.not, label %5, label %4

4:                                                ; preds = %3
  tail call void (ptr, i32, ptr, i32, ptr, ...) @mbedtls_debug_print_msg(ptr noundef %0, i32 noundef 1, ptr noundef nonnull @.str, i32 noundef 790, ptr noundef nonnull @.str.11, ptr noundef nonnull @.str.14) #9
  tail call void @mbedtls_ssl_pend_fatal_alert(ptr noundef %0, i8 noundef zeroext 50, i32 noundef -29440) #9
  br label %36

5:                                                ; preds = %3
  %6 = ptrtoint ptr %2 to i64
  %7 = load i8, ptr %1, align 1, !tbaa !47
  %8 = zext i8 %7 to i64
  %.ptr = getelementptr inbounds nuw i8, ptr %1, i64 1
  %9 = ptrtoint ptr %.ptr to i64
  %10 = sub i64 %6, %9
  %.not = icmp ult i64 %10, %8
  br i1 %.not, label %11, label %12

11:                                               ; preds = %5
  tail call void (ptr, i32, ptr, i32, ptr, ...) @mbedtls_debug_print_msg(ptr noundef %0, i32 noundef 1, ptr noundef nonnull @.str, i32 noundef 794, ptr noundef nonnull @.str.11, ptr noundef nonnull @.str.14) #9
  tail call void @mbedtls_ssl_pend_fatal_alert(ptr noundef %0, i8 noundef zeroext 50, i32 noundef -29440) #9
  br label %36

12:                                               ; preds = %5
  %13 = getelementptr inbounds nuw i8, ptr %1, i64 %8
  %.ptr50 = getelementptr inbounds nuw i8, ptr %13, i64 1
  %.not4148.not = icmp eq i8 %7, 0
  br i1 %.not4148.not, label %._crit_edge, label %.lr.ph

.lr.ph:                                           ; preds = %12
  %14 = ptrtoint ptr %.ptr50 to i64
  br label %15

15:                                               ; preds = %.lr.ph, %mbedtls_ssl_conf_is_tls12_enabled.exit.thread
  %.03449 = phi ptr [ %.ptr, %.lr.ph ], [ %26, %mbedtls_ssl_conf_is_tls12_enabled.exit.thread ]
  %16 = ptrtoint ptr %.03449 to i64
  %17 = sub i64 %14, %16
  %18 = icmp ugt i64 %17, 1
  br i1 %18, label %20, label %19

19:                                               ; preds = %15
  tail call void (ptr, i32, ptr, i32, ptr, ...) @mbedtls_debug_print_msg(ptr noundef %0, i32 noundef 1, ptr noundef nonnull @.str, i32 noundef 797, ptr noundef nonnull @.str.11, ptr noundef nonnull @.str.14) #9
  tail call void @mbedtls_ssl_pend_fatal_alert(ptr noundef %0, i8 noundef zeroext 50, i32 noundef -29440) #9
  br label %36

20:                                               ; preds = %15
  %21 = load ptr, ptr %0, align 8, !tbaa !40
  %22 = getelementptr inbounds nuw i8, ptr %21, i64 9
  %23 = load i8, ptr %22, align 1, !tbaa !41
  %24 = zext i8 %23 to i32
  %25 = tail call zeroext i16 @mbedtls_ssl_read_version(ptr noundef nonnull %.03449, i32 noundef %24) #9
  %26 = getelementptr inbounds nuw i8, ptr %.03449, i64 2
  switch i16 %25, label %mbedtls_ssl_conf_is_tls12_enabled.exit.thread [
    i16 772, label %34
    i16 771, label %27
  ]

27:                                               ; preds = %20
  %28 = load ptr, ptr %0, align 8, !tbaa !40
  %29 = getelementptr inbounds nuw i8, ptr %28, i64 4
  %30 = load i32, ptr %29, align 4, !tbaa !69
  %31 = icmp ult i32 %30, 772
  br i1 %31, label %mbedtls_ssl_conf_is_tls12_enabled.exit, label %mbedtls_ssl_conf_is_tls12_enabled.exit.thread

mbedtls_ssl_conf_is_tls12_enabled.exit:           ; preds = %27
  %32 = load i32, ptr %28, align 8, !tbaa !70
  %33 = icmp ult i32 %32, 771
  br i1 %33, label %mbedtls_ssl_conf_is_tls12_enabled.exit.thread, label %34

mbedtls_ssl_conf_is_tls12_enabled.exit.thread:    ; preds = %27, %20, %mbedtls_ssl_conf_is_tls12_enabled.exit
  %.not41 = icmp ult ptr %26, %.ptr50
  br i1 %.not41, label %15, label %._crit_edge, !llvm.loop !107

._crit_edge:                                      ; preds = %mbedtls_ssl_conf_is_tls12_enabled.exit.thread, %12
  tail call void (ptr, i32, ptr, i32, ptr, ...) @mbedtls_debug_print_msg(ptr noundef %0, i32 noundef 1, ptr noundef nonnull @.str, i32 noundef 814, ptr noundef nonnull @.str.46) #9
  tail call void @mbedtls_ssl_pend_fatal_alert(ptr noundef %0, i8 noundef zeroext 70, i32 noundef -28288) #9
  br label %36

34:                                               ; preds = %mbedtls_ssl_conf_is_tls12_enabled.exit, %20
  %35 = zext nneg i16 %25 to i32
  tail call void (ptr, i32, ptr, i32, ptr, ...) @mbedtls_debug_print_msg(ptr noundef nonnull %0, i32 noundef 1, ptr noundef nonnull @.str, i32 noundef 822, ptr noundef nonnull @.str.47, i32 noundef %35) #9
  br label %36

36:                                               ; preds = %34, %._crit_edge, %19, %11, %4
  %.033 = phi i32 [ -29440, %4 ], [ -29440, %11 ], [ -29440, %19 ], [ %35, %34 ], [ -28288, %._crit_edge ]
  ret i32 %.033
}